; Function Attrs: mustprogress uwtable
define void @_ZN7testing8internal12UnitTestImpl18ConfigureXmlOutputEv(ptr nocapture noundef nonnull align 8 dereferenceable(497) %this) local_unnamed_addr #3 align 2 personality ptr @__gxx_personality_v0 {
entry:
  %ref.tmp = alloca %"class.std::__cxx11::basic_string", align 8
  %ref.tmp6 = alloca %"class.std::__cxx11::basic_string", align 8
  call void @_ZN7testing8internal15UnitTestOptions15GetOutputFormatB5cxx11Ev(ptr nonnull sret(%"class.std::__cxx11::basic_string") align 8 %ref.tmp)
  %call.i = call noundef i32 @_ZNKSt7__cxx1112basic_stringIcSt11char_traitsIcESaIcEE7compareEPKc(ptr noundef nonnull align 8 dereferenceable(32) %ref.tmp, ptr noundef nonnull @.str.233) #47
  %cmp.i = icmp eq i32 %call.i, 0
  br i1 %cmp.i, label %if.then, label %invoke.cont13

if.then:                                          ; preds = %entry
  %listeners_.i = getelementptr inbounds i8, ptr %this, i64 400
  %call5 = invoke noalias noundef nonnull dereferenceable(40) ptr @_Znwm(i64 noundef 40) #50
          to label %invoke.cont4 unwind label %lpad

invoke.cont4:                                     ; preds = %if.then
  invoke void @_ZN7testing8internal15UnitTestOptions27GetAbsolutePathToOutputFileB5cxx11Ev(ptr nonnull sret(%"class.std::__cxx11::basic_string") align 8 %ref.tmp6)
          to label %invoke.cont8 unwind label %ehcleanup.thread

invoke.cont8:                                     ; preds = %invoke.cont4
  %call9 = call noundef ptr @_ZNKSt7__cxx1112basic_stringIcSt11char_traitsIcESaIcEE5c_strEv(ptr noundef nonnull align 8 dereferenceable(32) %ref.tmp6) #47
  invoke void @_ZN7testing8internal24XmlUnitTestResultPrinterC2EPKc(ptr noundef nonnull align 8 dereferenceable(40) %call5, ptr noundef %call9)
          to label %invoke.cont11 unwind label %ehcleanup.thread8

ehcleanup.thread8:                                ; preds = %invoke.cont8
  %0 = landingpad { ptr, i32 }
          cleanup
  call void @_ZNSt7__cxx1112basic_stringIcSt11char_traitsIcESaIcEED1Ev(ptr noundef nonnull align 8 dereferenceable(32) %ref.tmp6) #47
  br label %cleanup.action

invoke.cont11:                                    ; preds = %invoke.cont8
  invoke void @_ZN7testing18TestEventListeners22SetDefaultXmlGeneratorEPNS_17TestEventListenerE(ptr noundef nonnull align 8 dereferenceable(24) %listeners_.i, ptr noundef nonnull %call5)
          to label %invoke.cont12 unwind label %ehcleanup

invoke.cont12:                                    ; preds = %invoke.cont11
  call void @_ZNSt7__cxx1112basic_stringIcSt11char_traitsIcESaIcEED1Ev(ptr noundef nonnull align 8 dereferenceable(32) %ref.tmp6) #47
  br label %if.end21

lpad:                                             ; preds = %if.then
  %1 = landingpad { ptr, i32 }
          cleanup
  br label %ehcleanup22

ehcleanup.thread:                                 ; preds = %invoke.cont4
  %2 = landingpad { ptr, i32 }
          cleanup
  br label %cleanup.action

ehcleanup:                                        ; preds = %invoke.cont11
  %3 = landingpad { ptr, i32 }
          cleanup
  call void @_ZNSt7__cxx1112basic_stringIcSt11char_traitsIcESaIcEED1Ev(ptr noundef nonnull align 8 dereferenceable(32) %ref.tmp6) #47
  br label %ehcleanup22

cleanup.action:                                   ; preds = %ehcleanup.thread8, %ehcleanup.thread
  %.pn7 = phi { ptr, i32 } [ %2, %ehcleanup.thread ], [ %0, %ehcleanup.thread8 ]
  call void @_ZdlPv(ptr noundef nonnull %call5) #51
  br label %ehcleanup22

invoke.cont13:                                    ; preds = %entry
  %call.i.i = call noundef i32 @_ZNKSt7__cxx1112basic_stringIcSt11char_traitsIcESaIcEE7compareEPKc(ptr noundef nonnull align 8 dereferenceable(32) %ref.tmp, ptr noundef nonnull @.str.13) #47
  %cmp.i.i.not = icmp eq i32 %call.i.i, 0
  br i1 %cmp.i.i.not, label %if.end21, label %if.then15

if.then15:                                        ; preds = %invoke.cont13
  %call16 = call noundef ptr @_ZNKSt7__cxx1112basic_stringIcSt11char_traitsIcESaIcEE5c_strEv(ptr noundef nonnull align 8 dereferenceable(32) %ref.tmp) #47
  %call18 = call i32 (ptr, ...) @printf(ptr noundef nonnull dereferenceable(1) @.str.234, ptr noundef %call16)
  %4 = load ptr, ptr @stdout, align 8
  %call20 = call i32 @fflush(ptr noundef %4)
  br label %if.end21

if.end21:                                         ; preds = %invoke.cont13, %if.then15, %invoke.cont12
  call void @_ZNSt7__cxx1112basic_stringIcSt11char_traitsIcESaIcEED1Ev(ptr noundef nonnull align 8 dereferenceable(32) %ref.tmp) #47
  ret void

ehcleanup22:                                      ; preds = %ehcleanup, %cleanup.action, %lpad
  %.pn.pn = phi { ptr, i32 } [ %.pn7, %cleanup.action ], [ %3, %ehcleanup ], [ %1, %lpad ]
  call void @_ZNSt7__cxx1112basic_stringIcSt11char_traitsIcESaIcEED1Ev(ptr noundef nonnull align 8 dereferenceable(32) %ref.tmp) #47
  resume { ptr, i32 } %.pn.pn
}